target datalayout = "e-m:e-p270:32:32-p271:32:32-p272:64:64-i64:64-i128:128-f80:128-n8:16:32:64-S128"
target triple = "x86_64-unknown-linux-gnu"

%"class.net::QuicConfigValue" = type { ptr, i32, i32 }
%"class.std::vector" = type { %"struct.std::_Vector_base" }
%"struct.std::_Vector_base" = type { %"struct.std::_Vector_base<unsigned int, std::allocator<unsigned int>>::_Vector_impl" }
%"struct.std::_Vector_base<unsigned int, std::allocator<unsigned int>>::_Vector_impl" = type { %"struct.std::_Vector_base<unsigned int, std::allocator<unsigned int>>::_Vector_impl_data" }
%"struct.std::_Vector_base<unsigned int, std::allocator<unsigned int>>::_Vector_impl_data" = type { ptr, ptr, ptr }
%"class.net::QuicFixedTagVector" = type <{ %"class.net::QuicConfigValue", %"class.std::vector", i8, [7 x i8], %"class.std::vector", i8, [7 x i8] }>

; Function Attrs: mustprogress uwtable
define dso_local void @_ZNK3net18QuicFixedTagVector18ToHandshakeMessageEPNS_22CryptoHandshakeMessageE(ptr noundef nonnull align 8 dereferenceable(73) %this, ptr noundef %out) unnamed_addr #0 align 2 {
entry:
  %this.addr = alloca ptr, align 8
  %out.addr = alloca ptr, align 8
  store ptr %this, ptr %this.addr, align 8
  store ptr %out, ptr %out.addr, align 8
  %this1 = load ptr, ptr %this.addr, align 8
  %has_send_values_ = getelementptr inbounds %"class.net::QuicFixedTagVector", ptr %this1, i32 0, i32 2
  %0 = load i8, ptr %has_send_values_, align 8
  %tobool = trunc i8 %0 to i1
  br i1 %tobool, label %if.then, label %if.end

if.then:                                          ; preds = %entry
  %1 = load ptr, ptr %out.addr, align 8
  %tag_ = getelementptr inbounds %"class.net::QuicConfigValue", ptr %this1, i32 0, i32 1
  %2 = load i32, ptr %tag_, align 8
  %send_values_ = getelementptr inbounds %"class.net::QuicFixedTagVector", ptr %this1, i32 0, i32 1
  call void @_ZN3net22CryptoHandshakeMessage9SetVectorIjEEvjRKSt6vectorIT_SaIS3_EE(ptr noundef nonnull align 8 dereferenceable(72) %1, i32 noundef %2, ptr noundef nonnull align 8 dereferenceable(24) %send_values_)
  br label %if.end

if.end:                                           ; preds = %if.then, %entry
  ret void
}