; Function Attrs: mustprogress uwtable
define dso_local void @_ZNK3net18QuicFixedTagVector18ToHandshakeMessageEPNS_22CryptoHandshakeMessageE(ptr noundef nonnull align 8 dereferenceable(73) %this, ptr noundef %out) unnamed_addr #0 align 2 {
entry:
  %has_send_values_ = getelementptr inbounds i8, ptr %this, i64 40
  %0 = load i8, ptr %has_send_values_, align 8
  %1 = and i8 %0, 1
  %tobool.not = icmp eq i8 %1, 0
  br i1 %tobool.not, label %if.end, label %if.then

if.then:                                          ; preds = %entry
  %tag_ = getelementptr inbounds i8, ptr %this, i64 8
  %2 = load i32, ptr %tag_, align 8
  %send_values_ = getelementptr inbounds i8, ptr %this, i64 16
  tail call void @_ZN3net22CryptoHandshakeMessage9SetVectorIjEEvjRKSt6vectorIT_SaIS3_EE(ptr noundef nonnull align 8 dereferenceable(72) %out, i32 noundef %2, ptr noundef nonnull align 8 dereferenceable(24) %send_values_)
  br label %if.end

if.end:                                           ; preds = %if.then, %entry
  ret void
}